target datalayout = "e-m:e-p270:32:32-p271:32:32-p272:64:64-i64:64-i128:128-f80:128-n8:16:32:64-S128"
target triple = "x86_64-pc-linux-gnu"

%struct.Fra_Par_t_ = type { i32, double, i32, i32, double, double, i32, i32, i32, i32, i32, i32, i32, i32, i32, i32, i32, i32, i32, i32, i32, i32, i32, i32, i32 }

; Function Attrs: nounwind uwtable
define void @Fra_ParamsDefault(ptr noundef %0) #0 {
  %2 = alloca ptr, align 8
  store ptr %0, ptr %2, align 8, !tbaa !3
  %3 = load ptr, ptr %2, align 8, !tbaa !3
  call void @llvm.memset.p0.i64(ptr align 8 %3, i8 0, i64 120, i1 false)
  %4 = load ptr, ptr %2, align 8, !tbaa !3
  %5 = getelementptr inbounds nuw %struct.Fra_Par_t_, ptr %4, i32 0, i32 0
  store i32 32, ptr %5, align 8, !tbaa !8
  %6 = load ptr, ptr %2, align 8, !tbaa !3
  %7 = getelementptr inbounds nuw %struct.Fra_Par_t_, ptr %6, i32 0, i32 1
  store double 5.000000e-03, ptr %7, align 8, !tbaa !12
  %8 = load ptr, ptr %2, align 8, !tbaa !3
  %9 = getelementptr inbounds nuw %struct.Fra_Par_t_, ptr %8, i32 0, i32 2
  store i32 0, ptr %9, align 8, !tbaa !13
  %10 = load ptr, ptr %2, align 8, !tbaa !3
  %11 = getelementptr inbounds nuw %struct.Fra_Par_t_, ptr %10, i32 0, i32 3
  store i32 25, ptr %11, align 4, !tbaa !14
  %12 = load ptr, ptr %2, align 8, !tbaa !3
  %13 = getelementptr inbounds nuw %struct.Fra_Par_t_, ptr %12, i32 0, i32 10
  store i32 1, ptr %13, align 8, !tbaa !15
  %14 = load ptr, ptr %2, align 8, !tbaa !3
  %15 = getelementptr inbounds nuw %struct.Fra_Par_t_, ptr %14, i32 0, i32 4
  store double 3.000000e-01, ptr %15, align 8, !tbaa !16
  %16 = load ptr, ptr %2, align 8, !tbaa !3
  %17 = getelementptr inbounds nuw %struct.Fra_Par_t_, ptr %16, i32 0, i32 5
  store double 1.000000e+01, ptr %17, align 8, !tbaa !17
  %18 = load ptr, ptr %2, align 8, !tbaa !3
  %19 = getelementptr inbounds nuw %struct.Fra_Par_t_, ptr %18, i32 0, i32 12
  store i32 100, ptr %19, align 8, !tbaa !18
  %20 = load ptr, ptr %2, align 8, !tbaa !3
  %21 = getelementptr inbounds nuw %struct.Fra_Par_t_, ptr %20, i32 0, i32 13
  store i32 500000, ptr %21, align 4, !tbaa !19
  %22 = load ptr, ptr %2, align 8, !tbaa !3
  %23 = getelementptr inbounds nuw %struct.Fra_Par_t_, ptr %22, i32 0, i32 16
  store i32 0, ptr %23, align 8, !tbaa !20
  %24 = load ptr, ptr %2, align 8, !tbaa !3
  %25 = getelementptr inbounds nuw %struct.Fra_Par_t_, ptr %24, i32 0, i32 11
  store i32 1, ptr %25, align 4, !tbaa !21
  %26 = load ptr, ptr %2, align 8, !tbaa !3
  %27 = getelementptr inbounds nuw %struct.Fra_Par_t_, ptr %26, i32 0, i32 19
  store i32 0, ptr %27, align 4, !tbaa !22
  ret void
}