; Function Attrs: mustprogress nofree norecurse nosync nounwind willreturn memory(argmem: write) uwtable
define void @Fra_ParamsDefault(ptr noundef writeonly captures(none) initializes((0, 120)) %0) local_unnamed_addr #0 {
  tail call void @llvm.memset.p0.i64(ptr noundef nonnull align 8 dereferenceable(120) %0, i8 0, i64 120, i1 false)
  store i32 32, ptr %0, align 8, !tbaa !3
  %2 = getelementptr inbounds nuw i8, ptr %0, i64 8
  store double 5.000000e-03, ptr %2, align 8, !tbaa !9
  %3 = getelementptr inbounds nuw i8, ptr %0, i64 20
  store i32 25, ptr %3, align 4, !tbaa !10
  %4 = getelementptr inbounds nuw i8, ptr %0, i64 56
  store i32 1, ptr %4, align 8, !tbaa !11
  %5 = getelementptr inbounds nuw i8, ptr %0, i64 24
  store double 3.000000e-01, ptr %5, align 8, !tbaa !12
  %6 = getelementptr inbounds nuw i8, ptr %0, i64 32
  store double 1.000000e+01, ptr %6, align 8, !tbaa !13
  %7 = getelementptr inbounds nuw i8, ptr %0, i64 64
  store i32 100, ptr %7, align 8, !tbaa !14
  %8 = getelementptr inbounds nuw i8, ptr %0, i64 68
  store i32 500000, ptr %8, align 4, !tbaa !15
  %9 = getelementptr inbounds nuw i8, ptr %0, i64 60
  store i32 1, ptr %9, align 4, !tbaa !16
  ret void
}